target datalayout = "e-m:e-p270:32:32-p271:32:32-p272:64:64-i64:64-i128:128-f80:128-n8:16:32:64-S128"
target triple = "x86_64-pc-linux-gnu"

%struct.http2_session_t = type { [2 x ptr], i32, ptr, [2 x i32], [2 x i32] }
%struct.nstime_t = type { i64, i32 }
%struct.tcp_analysis = type { %struct._tcp_flow_t, %struct._tcp_flow_t, ptr, ptr, ptr, ptr, %struct.nstime_t, %struct.nstime_t, %struct.nstime_t, %struct.nstime_t, i32, i32, i16, i8, i8, ptr, i8, ptr, i8, i8, i8 }
%struct._tcp_flow_t = type { i8, i32, i32, i32, i16, i16, i8, i16, i8, i8, i8, ptr, i16, i32, i32, i16, ptr, ptr, ptr, ptr }

@hf_http2_settings = internal global i32 0, align 4
@hf_http2_settings_identifier = internal global i32 0, align 4
@hf_http2_settings_header_table_size = internal global i32 0, align 4
@hf_http2_settings_enable_push = internal global i32 0, align 4
@hf_http2_settings_max_concurrent_streams = internal global i32 0, align 4
@hf_http2_settings_initial_window_size = internal global i32 0, align 4
@hf_http2_settings_max_frame_size = internal global i32 0, align 4
@hf_http2_settings_max_header_list_size = internal global i32 0, align 4
@hf_http2_settings_extended_connect = internal global i32 0, align 4
@hf_http2_settings_no_rfc7540_priorities = internal global i32 0, align 4
@hf_http2_settings_unknown = internal global i32 0, align 4
@ett_http2_settings = internal global i32 0, align 4
@.str.263 = private unnamed_addr constant [6 x i8] c" - %s\00", align 1
@.str.264 = private unnamed_addr constant [13 x i8] c"Unknown (%u)\00", align 1
@.str.265 = private unnamed_addr constant [6 x i8] c" : %u\00", align 1

; Function Attrs: null_pointer_is_valid sspstrong uwtable
define internal i32 @select_http2_flow_index(ptr noundef %0, ptr noundef %1) #1 {
  %3 = alloca i32, align 4
  %4 = alloca ptr, align 8
  %5 = alloca ptr, align 8
  %6 = alloca ptr, align 8
  %7 = alloca i32, align 4
  store ptr %0, ptr %4, align 8
  store ptr %1, ptr %5, align 8
  call void @llvm.lifetime.start.p0(i64 8, ptr %6) #7
  %8 = load ptr, ptr %4, align 8
  %9 = call ptr @get_tcp_conversation_data(ptr noundef null, ptr noundef %8)
  store ptr %9, ptr %6, align 8
  %10 = load ptr, ptr %6, align 8
  %11 = getelementptr inbounds nuw %struct.tcp_analysis, ptr %10, i32 0, i32 2
  %12 = load ptr, ptr %11, align 8
  %13 = load ptr, ptr %5, align 8
  %14 = getelementptr inbounds nuw %struct.http2_session_t, ptr %13, i32 0, i32 2
  %15 = load ptr, ptr %14, align 8
  %16 = icmp eq ptr %12, %15
  br i1 %16, label %17, label %18

17:                                               ; preds = %2
  store i32 0, ptr %3, align 4
  store i32 1, ptr %7, align 4
  br label %19

18:                                               ; preds = %2
  store i32 1, ptr %3, align 4
  store i32 1, ptr %7, align 4
  br label %19

19:                                               ; preds = %18, %17
  call void @llvm.lifetime.end.p0(i64 8, ptr %6) #7
  %20 = load i32, ptr %3, align 4
  ret i32 %20
}

; Function Attrs: null_pointer_is_valid sspstrong uwtable
define internal i32 @dissect_http2_settings(ptr noundef %0, ptr noundef %1, ptr noundef %2, ptr noundef %3, i32 noundef %4, i8 noundef zeroext %5) #1 {
  %7 = alloca ptr, align 8
  %8 = alloca ptr, align 8
  %9 = alloca ptr, align 8
  %10 = alloca ptr, align 8
  %11 = alloca i32, align 4
  %12 = alloca i8, align 1
  %13 = alloca i32, align 4
  %14 = alloca ptr, align 8
  %15 = alloca ptr, align 8
  %16 = alloca i32, align 4
  %17 = alloca i32, align 4
  store ptr %0, ptr %7, align 8
  store ptr %1, ptr %8, align 8
  store ptr %2, ptr %9, align 8
  store ptr %3, ptr %10, align 8
  store i32 %4, ptr %11, align 4
  store i8 %5, ptr %12, align 1
  call void @llvm.lifetime.start.p0(i64 4, ptr %13) #7
  call void @llvm.lifetime.start.p0(i64 8, ptr %14) #7
  call void @llvm.lifetime.start.p0(i64 8, ptr %15) #7
  br label %18

18:                                               ; preds = %116, %6
  %19 = load ptr, ptr %7, align 8
  %20 = load i32, ptr %11, align 4
  %21 = call i32 @tvb_reported_length_remaining(ptr noundef %19, i32 noundef %20)
  %22 = icmp sgt i32 %21, 0
  br i1 %22, label %23, label %123

23:                                               ; preds = %18
  %24 = load ptr, ptr %10, align 8
  %25 = load i32, ptr @hf_http2_settings, align 4
  %26 = load ptr, ptr %7, align 8
  %27 = load i32, ptr %11, align 4
  %28 = call ptr @proto_tree_add_item(ptr noundef %24, i32 noundef %25, ptr noundef %26, i32 noundef %27, i32 noundef 6, i32 noundef 0)
  store ptr %28, ptr %14, align 8
  %29 = load ptr, ptr %14, align 8
  %30 = load i32, ptr @ett_http2_settings, align 4
  %31 = call ptr @proto_item_add_subtree(ptr noundef %29, i32 noundef %30)
  store ptr %31, ptr %15, align 8
  %32 = load ptr, ptr %15, align 8
  %33 = load i32, ptr @hf_http2_settings_identifier, align 4
  %34 = load ptr, ptr %7, align 8
  %35 = load i32, ptr %11, align 4
  %36 = call ptr @proto_tree_add_item(ptr noundef %32, i32 noundef %33, ptr noundef %34, i32 noundef %35, i32 noundef 2, i32 noundef 0)
  %37 = load ptr, ptr %7, align 8
  %38 = load i32, ptr %11, align 4
  %39 = call zeroext i16 @tvb_get_ntohs(ptr noundef %37, i32 noundef %38)
  %40 = zext i16 %39 to i32
  store i32 %40, ptr %13, align 4
  %41 = load ptr, ptr %14, align 8
  %42 = load i32, ptr %13, align 4
  %43 = call ptr @val_to_str(i32 noundef %42, ptr noundef @http2_settings_vals, ptr noundef @.str.264)
  call void (ptr, ptr, ...) @proto_item_append_text(ptr noundef %41, ptr noundef @.str.263, ptr noundef %43)
  %44 = load i32, ptr %11, align 4
  %45 = add i32 %44, 2
  store i32 %45, ptr %11, align 4
  %46 = load i32, ptr %13, align 4
  switch i32 %46, label %110 [
    i32 1, label %47
    i32 2, label %53
    i32 3, label %59
    i32 4, label %65
    i32 5, label %86
    i32 6, label %92
    i32 8, label %98
    i32 9, label %104
  ]

47:                                               ; preds = %23
  %48 = load ptr, ptr %15, align 8
  %49 = load i32, ptr @hf_http2_settings_header_table_size, align 4
  %50 = load ptr, ptr %7, align 8
  %51 = load i32, ptr %11, align 4
  %52 = call ptr @proto_tree_add_item(ptr noundef %48, i32 noundef %49, ptr noundef %50, i32 noundef %51, i32 noundef 4, i32 noundef 0)
  br label %116

53:                                               ; preds = %23
  %54 = load ptr, ptr %15, align 8
  %55 = load i32, ptr @hf_http2_settings_enable_push, align 4
  %56 = load ptr, ptr %7, align 8
  %57 = load i32, ptr %11, align 4
  %58 = call ptr @proto_tree_add_item(ptr noundef %54, i32 noundef %55, ptr noundef %56, i32 noundef %57, i32 noundef 4, i32 noundef 0)
  br label %116

59:                                               ; preds = %23
  %60 = load ptr, ptr %15, align 8
  %61 = load i32, ptr @hf_http2_settings_max_concurrent_streams, align 4
  %62 = load ptr, ptr %7, align 8
  %63 = load i32, ptr %11, align 4
  %64 = call ptr @proto_tree_add_item(ptr noundef %60, i32 noundef %61, ptr noundef %62, i32 noundef %63, i32 noundef 4, i32 noundef 0)
  br label %116

65:                                               ; preds = %23
  call void @llvm.lifetime.start.p0(i64 4, ptr %16) #7
  %66 = load ptr, ptr %15, align 8
  %67 = load i32, ptr @hf_http2_settings_initial_window_size, align 4
  %68 = load ptr, ptr %7, align 8
  %69 = load i32, ptr %11, align 4
  %70 = call ptr @proto_tree_add_item_ret_uint(ptr noundef %66, i32 noundef %67, ptr noundef %68, i32 noundef %69, i32 noundef 4, i32 noundef 0, ptr noundef %16)
  %71 = load ptr, ptr %9, align 8
  %72 = icmp ne ptr %71, null
  br i1 %72, label %73, label %85

73:                                               ; preds = %65
  call void @llvm.lifetime.start.p0(i64 4, ptr %17) #7
  %74 = load ptr, ptr %8, align 8
  %75 = load ptr, ptr %9, align 8
  %76 = call i32 @select_http2_flow_index(ptr noundef %74, ptr noundef %75)
  store i32 %76, ptr %17, align 4
  %77 = load i32, ptr %17, align 4
  %78 = xor i32 %77, 1
  store i32 %78, ptr %17, align 4
  %79 = load i32, ptr %16, align 4
  %80 = load ptr, ptr %9, align 8
  %81 = getelementptr inbounds nuw %struct.http2_session_t, ptr %80, i32 0, i32 3
  %82 = load i32, ptr %17, align 4
  %83 = zext i32 %82 to i64
  %84 = getelementptr [2 x i32], ptr %81, i64 0, i64 %83
  store i32 %79, ptr %84, align 4
  call void @llvm.lifetime.end.p0(i64 4, ptr %17) #7
  br label %85

85:                                               ; preds = %73, %65
  call void @llvm.lifetime.end.p0(i64 4, ptr %16) #7
  br label %116

86:                                               ; preds = %23
  %87 = load ptr, ptr %15, align 8
  %88 = load i32, ptr @hf_http2_settings_max_frame_size, align 4
  %89 = load ptr, ptr %7, align 8
  %90 = load i32, ptr %11, align 4
  %91 = call ptr @proto_tree_add_item(ptr noundef %87, i32 noundef %88, ptr noundef %89, i32 noundef %90, i32 noundef 4, i32 noundef 0)
  br label %116

92:                                               ; preds = %23
  %93 = load ptr, ptr %15, align 8
  %94 = load i32, ptr @hf_http2_settings_max_header_list_size, align 4
  %95 = load ptr, ptr %7, align 8
  %96 = load i32, ptr %11, align 4
  %97 = call ptr @proto_tree_add_item(ptr noundef %93, i32 noundef %94, ptr noundef %95, i32 noundef %96, i32 noundef 4, i32 noundef 0)
  br label %116

98:                                               ; preds = %23
  %99 = load ptr, ptr %15, align 8
  %100 = load i32, ptr @hf_http2_settings_extended_connect, align 4
  %101 = load ptr, ptr %7, align 8
  %102 = load i32, ptr %11, align 4
  %103 = call ptr @proto_tree_add_item(ptr noundef %99, i32 noundef %100, ptr noundef %101, i32 noundef %102, i32 noundef 4, i32 noundef 0)
  br label %116

104:                                              ; preds = %23
  %105 = load ptr, ptr %15, align 8
  %106 = load i32, ptr @hf_http2_settings_no_rfc7540_priorities, align 4
  %107 = load ptr, ptr %7, align 8
  %108 = load i32, ptr %11, align 4
  %109 = call ptr @proto_tree_add_item(ptr noundef %105, i32 noundef %106, ptr noundef %107, i32 noundef %108, i32 noundef 4, i32 noundef 0)
  br label %116

110:                                              ; preds = %23
  %111 = load ptr, ptr %15, align 8
  %112 = load i32, ptr @hf_http2_settings_unknown, align 4
  %113 = load ptr, ptr %7, align 8
  %114 = load i32, ptr %11, align 4
  %115 = call ptr @proto_tree_add_item(ptr noundef %111, i32 noundef %112, ptr noundef %113, i32 noundef %114, i32 noundef 4, i32 noundef 0)
  br label %116

116:                                              ; preds = %110, %104, %98, %92, %86, %85, %59, %53, %47
  %117 = load ptr, ptr %14, align 8
  %118 = load ptr, ptr %7, align 8
  %119 = load i32, ptr %11, align 4
  %120 = call i32 @tvb_get_ntohl(ptr noundef %118, i32 noundef %119)
  call void (ptr, ptr, ...) @proto_item_append_text(ptr noundef %117, ptr noundef @.str.265, i32 noundef %120)
  %121 = load i32, ptr %11, align 4
  %122 = add i32 %121, 4
  store i32 %122, ptr %11, align 4
  br label %18, !llvm.loop !10

123:                                              ; preds = %18
  %124 = load i32, ptr %11, align 4
  call void @llvm.lifetime.end.p0(i64 8, ptr %15) #7
  call void @llvm.lifetime.end.p0(i64 8, ptr %14) #7
  call void @llvm.lifetime.end.p0(i64 4, ptr %13) #7
  ret i32 %124
}