; Function Attrs: null_pointer_is_valid sspstrong uwtable
define internal fastcc void @dissect_http2_settings(ptr noundef %0, ptr noundef %1, ptr noundef captures(address_is_null) %2, ptr noundef %3, i32 noundef %4) unnamed_addr #1 {
  %6 = alloca i32, align 4
  %7 = tail call i32 @tvb_reported_length_remaining(ptr noundef %0, i32 noundef %4)
  %8 = icmp sgt i32 %7, 0
  br i1 %8, label %.lr.ph, label %._crit_edge

.lr.ph:                                           ; preds = %5
  %.not = icmp eq ptr %2, null
  %9 = getelementptr inbounds nuw i8, ptr %2, i64 24
  %10 = getelementptr inbounds nuw i8, ptr %2, i64 32
  br label %11

11:                                               ; preds = %.lr.ph, %59
  %.053 = phi i32 [ %4, %.lr.ph ], [ %61, %59 ]
  %12 = load i32, ptr @hf_http2_settings, align 4
  %13 = call ptr @proto_tree_add_item(ptr noundef %3, i32 noundef %12, ptr noundef %0, i32 noundef %.053, i32 noundef 6, i32 noundef 0)
  %14 = load i32, ptr @ett_http2_settings, align 4
  %15 = call ptr @proto_item_add_subtree(ptr noundef %13, i32 noundef %14)
  %16 = load i32, ptr @hf_http2_settings_identifier, align 4
  %17 = call ptr @proto_tree_add_item(ptr noundef %15, i32 noundef %16, ptr noundef %0, i32 noundef %.053, i32 noundef 2, i32 noundef 0)
  %18 = call zeroext i16 @tvb_get_ntohs(ptr noundef %0, i32 noundef %.053)
  %19 = zext i16 %18 to i32
  %20 = call ptr @val_to_str(i32 noundef %19, ptr noundef nonnull @http2_settings_vals, ptr noundef nonnull @.str.264)
  call void (ptr, ptr, ...) @proto_item_append_text(ptr noundef %13, ptr noundef nonnull @.str.263, ptr noundef %20)
  %21 = add i32 %.053, 2
  switch i16 %18, label %56 [
    i16 1, label %22
    i16 2, label %25
    i16 3, label %28
    i16 4, label %31
    i16 5, label %44
    i16 6, label %47
    i16 8, label %50
    i16 9, label %53
  ]

22:                                               ; preds = %11
  %23 = load i32, ptr @hf_http2_settings_header_table_size, align 4
  %24 = call ptr @proto_tree_add_item(ptr noundef %15, i32 noundef %23, ptr noundef %0, i32 noundef %21, i32 noundef 4, i32 noundef 0)
  br label %59

25:                                               ; preds = %11
  %26 = load i32, ptr @hf_http2_settings_enable_push, align 4
  %27 = call ptr @proto_tree_add_item(ptr noundef %15, i32 noundef %26, ptr noundef %0, i32 noundef %21, i32 noundef 4, i32 noundef 0)
  br label %59

28:                                               ; preds = %11
  %29 = load i32, ptr @hf_http2_settings_max_concurrent_streams, align 4
  %30 = call ptr @proto_tree_add_item(ptr noundef %15, i32 noundef %29, ptr noundef %0, i32 noundef %21, i32 noundef 4, i32 noundef 0)
  br label %59

31:                                               ; preds = %11
  call void @llvm.lifetime.start.p0(i64 4, ptr nonnull %6) #7
  %32 = load i32, ptr @hf_http2_settings_initial_window_size, align 4
  %33 = call ptr @proto_tree_add_item_ret_uint(ptr noundef %15, i32 noundef %32, ptr noundef %0, i32 noundef %21, i32 noundef 4, i32 noundef 0, ptr noundef nonnull %6)
  br i1 %.not, label %43, label %34

34:                                               ; preds = %31
  %35 = call ptr @get_tcp_conversation_data(ptr noundef null, ptr noundef %1)
  %36 = getelementptr inbounds nuw i8, ptr %35, i64 176
  %37 = load ptr, ptr %36, align 8
  %38 = load ptr, ptr %9, align 8
  %39 = icmp eq ptr %37, %38
  %40 = load i32, ptr %6, align 4
  %41 = zext i1 %39 to i64
  %42 = getelementptr [2 x i32], ptr %10, i64 0, i64 %41
  store i32 %40, ptr %42, align 4
  br label %43

43:                                               ; preds = %34, %31
  call void @llvm.lifetime.end.p0(i64 4, ptr nonnull %6) #7
  br label %59

44:                                               ; preds = %11
  %45 = load i32, ptr @hf_http2_settings_max_frame_size, align 4
  %46 = call ptr @proto_tree_add_item(ptr noundef %15, i32 noundef %45, ptr noundef %0, i32 noundef %21, i32 noundef 4, i32 noundef 0)
  br label %59

47:                                               ; preds = %11
  %48 = load i32, ptr @hf_http2_settings_max_header_list_size, align 4
  %49 = call ptr @proto_tree_add_item(ptr noundef %15, i32 noundef %48, ptr noundef %0, i32 noundef %21, i32 noundef 4, i32 noundef 0)
  br label %59

50:                                               ; preds = %11
  %51 = load i32, ptr @hf_http2_settings_extended_connect, align 4
  %52 = call ptr @proto_tree_add_item(ptr noundef %15, i32 noundef %51, ptr noundef %0, i32 noundef %21, i32 noundef 4, i32 noundef 0)
  br label %59

53:                                               ; preds = %11
  %54 = load i32, ptr @hf_http2_settings_no_rfc7540_priorities, align 4
  %55 = call ptr @proto_tree_add_item(ptr noundef %15, i32 noundef %54, ptr noundef %0, i32 noundef %21, i32 noundef 4, i32 noundef 0)
  br label %59

56:                                               ; preds = %11
  %57 = load i32, ptr @hf_http2_settings_unknown, align 4
  %58 = call ptr @proto_tree_add_item(ptr noundef %15, i32 noundef %57, ptr noundef %0, i32 noundef %21, i32 noundef 4, i32 noundef 0)
  br label %59

59:                                               ; preds = %56, %53, %50, %47, %44, %43, %28, %25, %22
  %60 = call i32 @tvb_get_ntohl(ptr noundef %0, i32 noundef %21)
  call void (ptr, ptr, ...) @proto_item_append_text(ptr noundef %13, ptr noundef nonnull @.str.265, i32 noundef %60)
  %61 = add i32 %.053, 6
  %62 = call i32 @tvb_reported_length_remaining(ptr noundef %0, i32 noundef %61)
  %63 = icmp sgt i32 %62, 0
  br i1 %63, label %11, label %._crit_edge, !llvm.loop !10

._crit_edge:                                      ; preds = %59, %5
  ret void
}